; ModuleID = '52/2423.c'
source_filename = "52/2423.c"
target datalayout = "e-m:e-p270:32:32-p271:32:32-p272:64:64-i64:64-f80:128-n8:16:32:64-S128"
target triple = "x86_64-pc-linux-gnu"

@.str = private unnamed_addr constant [6 x i8] c"%d %d\00", align 1
@.str.1 = private unnamed_addr constant [3 x i8] c"%d\00", align 1
@.str.2 = private unnamed_addr constant [4 x i8] c"%d \00", align 1
@.str.3 = private unnamed_addr constant [4 x i8] c"%d\0A\00", align 1

; Function Attrs: noinline nounwind uwtable
define dso_local void @change(i32* %0, i32 %1) #0 {
  %3 = alloca i32*, align 8
  %4 = alloca i32, align 4
  %5 = alloca i32*, align 8
  %6 = alloca i32, align 4
  store i32* %0, i32** %3, align 8
  store i32 %1, i32* %4, align 4
  %7 = load i32*, i32** %3, align 8
  %8 = load i32, i32* %4, align 4
  %9 = sext i32 %8 to i64
  %10 = getelementptr inbounds i32, i32* %7, i64 %9
  %11 = getelementptr inbounds i32, i32* %10, i64 -1
  store i32* %11, i32** %5, align 8
  %12 = load i32*, i32** %5, align 8
  %13 = load i32, i32* %12, align 4
  store i32 %13, i32* %6, align 4
  br label %14

14:                                               ; preds = %23, %2
  %15 = load i32*, i32** %5, align 8
  %16 = load i32*, i32** %3, align 8
  %17 = icmp ne i32* %15, %16
  br i1 %17, label %18, label %26

18:                                               ; preds = %14
  %19 = load i32*, i32** %5, align 8
  %20 = getelementptr inbounds i32, i32* %19, i64 -1
  %21 = load i32, i32* %20, align 4
  %22 = load i32*, i32** %5, align 8
  store i32 %21, i32* %22, align 4
  br label %23

23:                                               ; preds = %18
  %24 = load i32*, i32** %5, align 8
  %25 = getelementptr inbounds i32, i32* %24, i32 -1
  store i32* %25, i32** %5, align 8
  br label %14

26:                                               ; preds = %14
  %27 = load i32, i32* %6, align 4
  %28 = load i32*, i32** %5, align 8
  store i32 %27, i32* %28, align 4
  ret void
}

; Function Attrs: noinline nounwind uwtable
define dso_local void @main() #0 {
  %1 = alloca i32, align 4
  %2 = alloca i32, align 4
  %3 = alloca i32, align 4
  %4 = alloca i32, align 4
  %5 = alloca i32*, align 8
  %6 = call i32 (i8*, ...) @__isoc99_scanf(i8* getelementptr inbounds ([6 x i8], [6 x i8]* @.str, i64 0, i64 0), i32* %1, i32* %2)
  store i32* inttoptr (i64 100 to i32*), i32** %5, align 8
  store i32 0, i32* %3, align 4
  br label %7

7:                                                ; preds = %17, %0
  %8 = load i32, i32* %3, align 4
  %9 = load i32, i32* %1, align 4
  %10 = icmp slt i32 %8, %9
  br i1 %10, label %11, label %20

11:                                               ; preds = %7
  %12 = load i32*, i32** %5, align 8
  %13 = load i32, i32* %3, align 4
  %14 = sext i32 %13 to i64
  %15 = getelementptr inbounds i32, i32* %12, i64 %14
  %16 = call i32 (i8*, ...) @__isoc99_scanf(i8* getelementptr inbounds ([3 x i8], [3 x i8]* @.str.1, i64 0, i64 0), i32* %15)
  br label %17

17:                                               ; preds = %11
  %18 = load i32, i32* %3, align 4
  %19 = add nsw i32 %18, 1
  store i32 %19, i32* %3, align 4
  br label %7

20:                                               ; preds = %7
  store i32 0, i32* %4, align 4
  br label %21

21:                                               ; preds = %28, %20
  %22 = load i32, i32* %4, align 4
  %23 = load i32, i32* %2, align 4
  %24 = icmp slt i32 %22, %23
  br i1 %24, label %25, label %31

25:                                               ; preds = %21
  %26 = load i32*, i32** %5, align 8
  %27 = load i32, i32* %1, align 4
  call void @change(i32* %26, i32 %27)
  br label %28

28:                                               ; preds = %25
  %29 = load i32, i32* %4, align 4
  %30 = add nsw i32 %29, 1
  store i32 %30, i32* %4, align 4
  br label %21

31:                                               ; preds = %21
  store i32 0, i32* %3, align 4
  br label %32

32:                                               ; preds = %44, %31
  %33 = load i32, i32* %3, align 4
  %34 = load i32, i32* %1, align 4
  %35 = sub nsw i32 %34, 1
  %36 = icmp slt i32 %33, %35
  br i1 %36, label %37, label %47

37:                                               ; preds = %32
  %38 = load i32*, i32** %5, align 8
  %39 = load i32, i32* %3, align 4
  %40 = sext i32 %39 to i64
  %41 = getelementptr inbounds i32, i32* %38, i64 %40
  %42 = load i32, i32* %41, align 4
  %43 = call i32 (i8*, ...) @printf(i8* getelementptr inbounds ([4 x i8], [4 x i8]* @.str.2, i64 0, i64 0), i32 %42)
  br label %44

44:                                               ; preds = %37
  %45 = load i32, i32* %3, align 4
  %46 = add nsw i32 %45, 1
  store i32 %46, i32* %3, align 4
  br label %32

47:                                               ; preds = %32
  %48 = load i32*, i32** %5, align 8
  %49 = load i32, i32* %3, align 4
  %50 = sext i32 %49 to i64
  %51 = getelementptr inbounds i32, i32* %48, i64 %50
  %52 = load i32, i32* %51, align 4
  %53 = call i32 (i8*, ...) @printf(i8* getelementptr inbounds ([4 x i8], [4 x i8]* @.str.3, i64 0, i64 0), i32 %52)
  ret void
}

declare dso_local i32 @__isoc99_scanf(i8*, ...) #1

declare dso_local i32 @printf(i8*, ...) #1


!llvm.module.flags = !{!0}
!llvm.ident = !{!1}

!0 = !{i32 1, !"wchar_size", i32 4}
!1 = !{!"clang version 10.0.0-4ubuntu1 "}
